target datalayout = "e-m:e-p270:32:32-p271:32:32-p272:64:64-i64:64-i128:128-f80:128-n8:16:32:64-S128"
target triple = "x86_64-pc-linux-gnu"

@.str.1 = private unnamed_addr constant [20 x i8] c"toast_compression.c\00", align 1
@.str.2 = private unnamed_addr constant [37 x i8] c"compression method lz4 not supported\00", align 1
@.str.3 = private unnamed_addr constant [69 x i8] c"This functionality requires the server to be built with lz4 support.\00", align 1
@__func__.lz4_decompress_datum = private unnamed_addr constant [21 x i8] c"lz4_decompress_datum\00", align 1

; Function Attrs: nounwind uwtable
define dso_local ptr @lz4_decompress_datum(ptr noundef %0) #0 {
  %2 = alloca ptr, align 8
  store ptr %0, ptr %2, align 8
  br label %3

3:                                                ; preds = %1
  br i1 true, label %4, label %6

4:                                                ; preds = %3
  %5 = call zeroext i1 @errstart_cold(i32 noundef 21, ptr noundef null) #7
  br i1 %5, label %8, label %12

6:                                                ; preds = %3
  %7 = call zeroext i1 @errstart(i32 noundef 21, ptr noundef null)
  br i1 %7, label %8, label %12

8:                                                ; preds = %6, %4
  %9 = call i32 @errcode(i32 noundef 1088)
  %10 = call i32 (ptr, ...) @errmsg(ptr noundef @.str.2)
  %11 = call i32 (ptr, ...) @errdetail(ptr noundef @.str.3)
  call void @errfinish(ptr noundef @.str.1, i32 noundef 185, ptr noundef @__func__.lz4_decompress_datum)
  br label %12

12:                                               ; preds = %8, %6, %4
  unreachable

13:                                               ; No predecessors!
  ret ptr null
}